; Function Attrs: nounwind uwtable
define dso_local noundef i32 @_archive_entry_acl_text_l(ptr noundef %0, i32 noundef %1, ptr noundef writeonly captures(none) initializes((0, 8)) %2, ptr noundef %3, ptr noundef %4) local_unnamed_addr #0 {
  %6 = getelementptr inbounds nuw i8, ptr %0, i64 1104
  %7 = load ptr, ptr %6, align 8, !tbaa !91
  tail call void @free(ptr noundef %7) #21
  store ptr null, ptr %6, align 8, !tbaa !91
  %8 = and i32 %1, 768
  %9 = icmp eq i32 %8, 0
  br i1 %9, label %archive_entry_acl_text_compat.exit, label %10

10:                                               ; preds = %5
  %11 = lshr i32 %1, 10
  %12 = and i32 %11, 3
  %13 = or i32 %1, %12
  %14 = or i32 %13, 8
  %15 = getelementptr inbounds nuw i8, ptr %0, i64 1064
  %16 = tail call ptr @archive_acl_to_text_l(ptr noundef nonnull %15, ptr noundef %3, i32 noundef %14, ptr noundef %4) #21
  store ptr %16, ptr %6, align 8, !tbaa !91
  br label %archive_entry_acl_text_compat.exit

archive_entry_acl_text_compat.exit:               ; preds = %5, %10
  %17 = phi ptr [ null, %5 ], [ %16, %10 ]
  store ptr %17, ptr %2, align 8, !tbaa !57
  ret i32 0
}